; Function Attrs: mustprogress uwtable
define noundef zeroext i1 @_ZNK14RtpAudioStream7isMatchEPK13_rtpstream_id(ptr noundef nonnull align 8 dereferenceable(7680) %0, ptr noundef %1) local_unnamed_addr #0 align 2 {
  %.not = icmp eq ptr %1, null
  br i1 %.not, label %6, label %3

3:                                                ; preds = %2
  %4 = getelementptr inbounds i8, ptr %0, i64 16
  %5 = tail call i32 @rtpstream_id_equal(ptr noundef nonnull %4, ptr noundef nonnull %1, i32 noundef 1)
  %.not5 = icmp eq i32 %5, 0
  br i1 %.not5, label %6, label %7

6:                                                ; preds = %3, %2
  br label %7

7:                                                ; preds = %3, %6
  %.0 = phi i1 [ false, %6 ], [ true, %3 ]
  ret i1 %.0
}